target datalayout = "e-m:e-p270:32:32-p271:32:32-p272:64:64-i64:64-i128:128-f80:128-n8:16:32:64-S128"
target triple = "x86_64-pc-linux-gnu"

%struct.SDL_AtomicInt = type { i32 }
%struct.SDL_error = type { i32, ptr, i64, ptr, ptr }
%struct.SDL_Thread = type { i64, i64, i32, %struct.SDL_AtomicInt, %struct.SDL_error, ptr, i64, ptr, ptr, ptr, ptr }

; Function Attrs: nounwind uwtable
define internal zeroext i1 @ThreadValid(ptr noundef %0) #0 {
  %2 = alloca ptr, align 8
  store ptr %0, ptr %2, align 8
  %3 = load ptr, ptr %2, align 8
  %4 = call zeroext i1 @SDL_ObjectValid(ptr noundef %3, i32 noundef 10)
  ret i1 %4
}

; Function Attrs: nounwind uwtable
define hidden ptr @SDL_GetThreadName_REAL(ptr noundef %0) #0 {
  %2 = alloca ptr, align 8
  %3 = alloca ptr, align 8
  store ptr %0, ptr %3, align 8
  %4 = load ptr, ptr %3, align 8
  %5 = call zeroext i1 @ThreadValid(ptr noundef %4)
  br i1 %5, label %6, label %11

6:                                                ; preds = %1
  %7 = load ptr, ptr %3, align 8
  %8 = getelementptr inbounds nuw %struct.SDL_Thread, ptr %7, i32 0, i32 5
  %9 = load ptr, ptr %8, align 8
  %10 = call ptr @SDL_GetPersistentString(ptr noundef %9)
  store ptr %10, ptr %2, align 8
  br label %12

11:                                               ; preds = %1
  store ptr null, ptr %2, align 8
  br label %12

12:                                               ; preds = %11, %6
  %13 = load ptr, ptr %2, align 8
  ret ptr %13
}