; Function Attrs: nounwind uwtable
define hidden ptr @SDL_GetThreadName_REAL(ptr noundef %0) local_unnamed_addr #0 {
  %2 = tail call zeroext i1 @SDL_ObjectValid(ptr noundef %0, i32 noundef 10) #6
  br i1 %2, label %3, label %7

3:                                                ; preds = %1
  %4 = getelementptr inbounds nuw i8, ptr %0, i64 64
  %5 = load ptr, ptr %4, align 8
  %6 = tail call ptr @SDL_GetPersistentString(ptr noundef %5) #6
  br label %7

7:                                                ; preds = %1, %3
  %.0 = phi ptr [ %6, %3 ], [ null, %1 ]
  ret ptr %.0
}